target datalayout = "e-m:e-p270:32:32-p271:32:32-p272:64:64-i64:64-i128:128-f80:128-n8:16:32:64-S128"
target triple = "x86_64-pc-linux-gnu"

%struct.Agobj_s = type { %struct.Agtag_s, ptr }
%struct.Agtag_s = type { i32, i64 }
%struct.Agrec_s = type { ptr, ptr }
%struct.boxf = type { %struct.pointf_s, %struct.pointf_s }
%struct.pointf_s = type { double, double }
%struct.Agnodeinfo_t = type { %struct.Agrec_s, ptr, ptr, %struct.pointf_s, double, double, %struct.boxf, double, double, double, double, double, ptr, ptr, ptr, i8, i8, i8, i8, i32, i32, i32, ptr, double, i8, i8, ptr, ptr, i8, i64, i8, i8, i8, ptr, ptr, %struct.elist, %struct.elist, %struct.elist, %struct.elist, %struct.elist, ptr, i32, ptr, i32, i32, double, %struct.elist, %struct.elist, %struct.elist, %struct.elist, ptr, i32, i32, i32, [1 x double] }
%struct.elist = type { ptr, i64 }
%struct.Agedge_s = type { %struct.Agobj_s, %struct.dtlink_s_, %struct.dtlink_s_, ptr }
%struct.dtlink_s_ = type { ptr, %union.anon.0 }
%union.anon.0 = type { ptr }
%struct.Agedgeinfo_t = type { %struct.Agrec_s, ptr, %struct.port, %struct.port, ptr, ptr, ptr, ptr, i8, i8, i8, i8, i8, ptr, ptr, double, double, %struct.Ppoly_t, i8, i8, i16, i32, i32, i32, i16, i32, ptr }
%struct.port = type { %struct.pointf_s, double, ptr, i8, i8, i8, i8, i8, i8, ptr }
%struct.Ppoly_t = type { ptr, i64 }

@table = internal global [3 x [3 x i32]] [[3 x i32] [i32 1, i32 1, i32 1], [3 x i32] [i32 1, i32 2, i32 2], [3 x i32] [i32 1, i32 2, i32 4]], align 16
@.str.9 = private unnamed_addr constant [50 x i8] c"overflow when calculating virtual weight of edge\0A\00", align 1

; Function Attrs: nounwind uwtable
define internal i32 @endpoint_class(ptr noundef %0) #0 {
  %2 = alloca i32, align 4
  %3 = alloca ptr, align 8
  store ptr %0, ptr %3, align 8, !tbaa !41
  %4 = load ptr, ptr %3, align 8, !tbaa !41
  %5 = getelementptr inbounds nuw %struct.Agobj_s, ptr %4, i32 0, i32 1
  %6 = load ptr, ptr %5, align 8, !tbaa !8
  %7 = getelementptr inbounds nuw %struct.Agnodeinfo_t, ptr %6, i32 0, i32 28
  %8 = load i8, ptr %7, align 8, !tbaa !154
  %9 = sext i8 %8 to i32
  %10 = icmp eq i32 %9, 1
  br i1 %10, label %11, label %12

11:                                               ; preds = %1
  store i32 2, ptr %2, align 4
  br label %22

12:                                               ; preds = %1
  %13 = load ptr, ptr %3, align 8, !tbaa !41
  %14 = getelementptr inbounds nuw %struct.Agobj_s, ptr %13, i32 0, i32 1
  %15 = load ptr, ptr %14, align 8, !tbaa !8
  %16 = getelementptr inbounds nuw %struct.Agnodeinfo_t, ptr %15, i32 0, i32 32
  %17 = load i8, ptr %16, align 2, !tbaa !155
  %18 = sext i8 %17 to i32
  %19 = icmp sle i32 %18, 1
  br i1 %19, label %20, label %21

20:                                               ; preds = %12
  store i32 1, ptr %2, align 4
  br label %22

21:                                               ; preds = %12
  store i32 0, ptr %2, align 4
  br label %22

22:                                               ; preds = %21, %20, %11
  %23 = load i32, ptr %2, align 4
  ret i32 %23
}

; Function Attrs: nounwind uwtable
define void @virtual_weight(ptr noundef %0) #0 {
  %2 = alloca ptr, align 8
  %3 = alloca i32, align 4
  store ptr %0, ptr %2, align 8, !tbaa !49
  call void @llvm.lifetime.start.p0(i64 4, ptr %3) #15
  %4 = load ptr, ptr %2, align 8, !tbaa !49
  %5 = getelementptr inbounds nuw %struct.Agobj_s, ptr %4, i32 0, i32 0
  %6 = load i32, ptr %5, align 8
  %7 = and i32 %6, 3
  %8 = icmp eq i32 %7, 3
  br i1 %8, label %9, label %11

9:                                                ; preds = %1
  %10 = load ptr, ptr %2, align 8, !tbaa !49
  br label %14

11:                                               ; preds = %1
  %12 = load ptr, ptr %2, align 8, !tbaa !49
  %13 = getelementptr inbounds %struct.Agedge_s, ptr %12, i64 1
  br label %14

14:                                               ; preds = %11, %9
  %15 = phi ptr [ %10, %9 ], [ %13, %11 ]
  %16 = getelementptr inbounds nuw %struct.Agedge_s, ptr %15, i32 0, i32 3
  %17 = load ptr, ptr %16, align 8, !tbaa !51
  %18 = call i32 @endpoint_class(ptr noundef %17)
  %19 = sext i32 %18 to i64
  %20 = getelementptr inbounds [3 x [3 x i32]], ptr @table, i64 0, i64 %19
  %21 = load ptr, ptr %2, align 8, !tbaa !49
  %22 = getelementptr inbounds nuw %struct.Agobj_s, ptr %21, i32 0, i32 0
  %23 = load i32, ptr %22, align 8
  %24 = and i32 %23, 3
  %25 = icmp eq i32 %24, 2
  br i1 %25, label %26, label %28

26:                                               ; preds = %14
  %27 = load ptr, ptr %2, align 8, !tbaa !49
  br label %31

28:                                               ; preds = %14
  %29 = load ptr, ptr %2, align 8, !tbaa !49
  %30 = getelementptr inbounds %struct.Agedge_s, ptr %29, i64 -1
  br label %31

31:                                               ; preds = %28, %26
  %32 = phi ptr [ %27, %26 ], [ %30, %28 ]
  %33 = getelementptr inbounds nuw %struct.Agedge_s, ptr %32, i32 0, i32 3
  %34 = load ptr, ptr %33, align 8, !tbaa !51
  %35 = call i32 @endpoint_class(ptr noundef %34)
  %36 = sext i32 %35 to i64
  %37 = getelementptr inbounds [3 x i32], ptr %20, i64 0, i64 %36
  %38 = load i32, ptr %37, align 4, !tbaa !33
  store i32 %38, ptr %3, align 4, !tbaa !33
  %39 = load i32, ptr %3, align 4, !tbaa !33
  %40 = sdiv i32 2147483647, %39
  %41 = load ptr, ptr %2, align 8, !tbaa !49
  %42 = getelementptr inbounds nuw %struct.Agobj_s, ptr %41, i32 0, i32 1
  %43 = load ptr, ptr %42, align 8, !tbaa !8
  %44 = getelementptr inbounds nuw %struct.Agedgeinfo_t, ptr %43, i32 0, i32 21
  %45 = load i32, ptr %44, align 4, !tbaa !153
  %46 = icmp slt i32 %40, %45
  br i1 %46, label %47, label %48

47:                                               ; preds = %31
  call void (ptr, ...) @agerrorf(ptr noundef @.str.9)
  call void @graphviz_exit(i32 noundef 1) #16
  unreachable

48:                                               ; preds = %31
  %49 = load i32, ptr %3, align 4, !tbaa !33
  %50 = load ptr, ptr %2, align 8, !tbaa !49
  %51 = getelementptr inbounds nuw %struct.Agobj_s, ptr %50, i32 0, i32 1
  %52 = load ptr, ptr %51, align 8, !tbaa !8
  %53 = getelementptr inbounds nuw %struct.Agedgeinfo_t, ptr %52, i32 0, i32 21
  %54 = load i32, ptr %53, align 4, !tbaa !153
  %55 = mul nsw i32 %54, %49
  store i32 %55, ptr %53, align 4, !tbaa !153
  call void @llvm.lifetime.end.p0(i64 4, ptr %3) #15
  ret void
}