; Function Attrs: nounwind uwtable
define void @virtual_weight(ptr noundef readonly captures(none) %0) local_unnamed_addr #0 {
  %2 = load i32, ptr %0, align 8
  %3 = and i32 %2, 3
  %4 = icmp eq i32 %3, 3
  %.idx = select i1 %4, i64 0, i64 64
  %5 = getelementptr inbounds nuw i8, ptr %0, i64 %.idx
  %6 = getelementptr inbounds nuw i8, ptr %5, i64 56
  %7 = load ptr, ptr %6, align 8, !tbaa !51
  %8 = getelementptr i8, ptr %7, i64 16
  %.val = load ptr, ptr %8, align 8, !tbaa !3
  %9 = getelementptr inbounds nuw i8, ptr %.val, i64 216
  %10 = load i8, ptr %9, align 8, !tbaa !137
  %11 = icmp eq i8 %10, 1
  br i1 %11, label %endpoint_class.exit, label %12

12:                                               ; preds = %1
  %13 = getelementptr inbounds nuw i8, ptr %.val, i64 234
  %14 = load i8, ptr %13, align 2, !tbaa !201
  %15 = icmp slt i8 %14, 2
  %16 = zext i1 %15 to i64
  br label %endpoint_class.exit

endpoint_class.exit:                              ; preds = %1, %12
  %.0.i = phi i64 [ 2, %1 ], [ %16, %12 ]
  %17 = icmp eq i32 %3, 2
  %.idx9 = select i1 %17, i64 0, i64 -64
  %18 = getelementptr inbounds i8, ptr %0, i64 %.idx9
  %19 = getelementptr inbounds nuw i8, ptr %18, i64 56
  %20 = load ptr, ptr %19, align 8, !tbaa !51
  %21 = getelementptr i8, ptr %20, i64 16
  %.val10 = load ptr, ptr %21, align 8, !tbaa !3
  %22 = getelementptr inbounds nuw i8, ptr %.val10, i64 216
  %23 = load i8, ptr %22, align 8, !tbaa !137
  %24 = icmp eq i8 %23, 1
  br i1 %24, label %endpoint_class.exit13, label %25

25:                                               ; preds = %endpoint_class.exit
  %26 = getelementptr inbounds nuw i8, ptr %.val10, i64 234
  %27 = load i8, ptr %26, align 2, !tbaa !201
  %28 = icmp slt i8 %27, 2
  %29 = zext i1 %28 to i64
  br label %endpoint_class.exit13

endpoint_class.exit13:                            ; preds = %endpoint_class.exit, %25
  %.0.i12 = phi i64 [ 2, %endpoint_class.exit ], [ %29, %25 ]
  %30 = getelementptr inbounds nuw [3 x [3 x i32]], ptr @table, i64 0, i64 %.0.i, i64 %.0.i12
  %31 = load i32, ptr %30, align 4, !tbaa !67
  %32 = sdiv i32 2147483647, %31
  %33 = getelementptr inbounds nuw i8, ptr %0, i64 16
  %34 = load ptr, ptr %33, align 8, !tbaa !3
  %35 = getelementptr inbounds nuw i8, ptr %34, i64 212
  %36 = load i32, ptr %35, align 4, !tbaa !202
  %37 = icmp slt i32 %32, %36
  br i1 %37, label %38, label %39

38:                                               ; preds = %endpoint_class.exit13
  tail call void (ptr, ...) @agerrorf(ptr noundef nonnull @.str.9) #23
  tail call fastcc void @graphviz_exit() #26
  unreachable

39:                                               ; preds = %endpoint_class.exit13
  %40 = mul nsw i32 %36, %31
  store i32 %40, ptr %35, align 4, !tbaa !202
  ret void
}